; Function Attrs: mustprogress uwtable
define noundef nonnull align 8 dereferenceable(8) ptr @_ZN10colvarbias10write_trajERSo(ptr nocapture noundef nonnull readonly align 8 dereferenceable(312) %0, ptr noundef nonnull returned align 8 dereferenceable(8) %1) unnamed_addr #0 align 2 {
  %3 = tail call noundef nonnull align 8 dereferenceable(8) ptr @_ZStlsISt11char_traitsIcEERSt13basic_ostreamIcT_ES5_PKc(ptr noundef nonnull align 8 dereferenceable(8) %1, ptr noundef nonnull @.str.106)
  %4 = getelementptr inbounds i8, ptr %0, i64 256
  %5 = load i8, ptr %4, align 8
  %6 = trunc i8 %5 to i1
  br i1 %6, label %7, label %18

7:                                                ; preds = %2
  %8 = tail call noundef nonnull align 8 dereferenceable(8) ptr @_ZStlsISt11char_traitsIcEERSt13basic_ostreamIcT_ES5_PKc(ptr noundef nonnull align 8 dereferenceable(8) %1, ptr noundef nonnull @.str.106)
  %9 = load i64, ptr @_ZN12colvarmodule7en_precE, align 8
  %10 = trunc i64 %9 to i32
  %11 = tail call noundef nonnull align 8 dereferenceable(8) ptr @_ZStlsIcSt11char_traitsIcEERSt13basic_ostreamIT_T0_ES6_St13_Setprecision(ptr noundef nonnull align 8 dereferenceable(8) %8, i32 %10)
  %12 = load i64, ptr @_ZN12colvarmodule8en_widthE, align 8
  %13 = trunc i64 %12 to i32
  %14 = tail call noundef nonnull align 8 dereferenceable(8) ptr @_ZStlsIcSt11char_traitsIcEERSt13basic_ostreamIT_T0_ES6_St5_Setw(ptr noundef nonnull align 8 dereferenceable(8) %11, i32 %13)
  %15 = getelementptr inbounds i8, ptr %0, i64 248
  %16 = load double, ptr %15, align 8
  %17 = tail call noundef nonnull align 8 dereferenceable(8) ptr @_ZNSolsEd(ptr noundef nonnull align 8 dereferenceable(8) %14, double noundef %16)
  br label %18

18:                                               ; preds = %7, %2
  ret ptr %1
}